target datalayout = "e-m:e-p270:32:32-p271:32:32-p272:64:64-i64:64-i128:128-f80:128-n8:16:32:64-S128"
target triple = "x86_64-pc-linux-gnu"

@hf_usb_com_get_ntb_params_length = internal global i32 0, align 4
@hf_usb_com_get_ntb_params_ntb_formats_supported = internal global i32 0, align 4
@hf_usb_com_get_ntb_params_ntb_in_max_size = internal global i32 0, align 4
@hf_usb_com_get_ntb_params_ndp_in_divisor = internal global i32 0, align 4
@hf_usb_com_get_ntb_params_ndp_in_payload_remainder = internal global i32 0, align 4
@hf_usb_com_get_ntb_params_ndp_in_alignment = internal global i32 0, align 4
@hf_usb_com_get_ntb_params_reserved = internal global i32 0, align 4
@hf_usb_com_get_ntb_params_ntb_out_max_size = internal global i32 0, align 4
@hf_usb_com_get_ntb_params_ndp_out_divisor = internal global i32 0, align 4
@hf_usb_com_get_ntb_params_ndp_out_payload_remainder = internal global i32 0, align 4
@hf_usb_com_get_ntb_params_ndp_out_alignment = internal global i32 0, align 4
@hf_usb_com_get_ntb_params_ntb_out_max_datagrams = internal global i32 0, align 4
@ett_usb_com_bitmap = internal global i32 0, align 4
@usb_com_get_ntb_params_ntb_formats_supported_fields = internal constant [3 x ptr] [ptr @hf_usb_com_get_ntb_params_ntb_formats_supported_16bit, ptr @hf_usb_com_get_ntb_params_ntb_formats_supported_32bit, ptr null], align 16

; Function Attrs: null_pointer_is_valid sspstrong uwtable
define internal i32 @dissect_usb_com_get_ntb_params(ptr noundef %0, ptr noundef %1, i32 noundef %2) #1 {
  %4 = alloca ptr, align 8
  %5 = alloca ptr, align 8
  %6 = alloca i32, align 4
  %7 = alloca i32, align 4
  store ptr %0, ptr %4, align 8
  store ptr %1, ptr %5, align 8
  store i32 %2, ptr %6, align 4
  call void @llvm.lifetime.start.p0(i64 4, ptr %7) #13
  %8 = load i32, ptr %6, align 4
  store i32 %8, ptr %7, align 4
  %9 = load ptr, ptr %5, align 8
  %10 = load i32, ptr @hf_usb_com_get_ntb_params_length, align 4
  %11 = load ptr, ptr %4, align 8
  %12 = load i32, ptr %7, align 4
  %13 = call ptr @proto_tree_add_item(ptr noundef %9, i32 noundef %10, ptr noundef %11, i32 noundef %12, i32 noundef 2, i32 noundef -2147483648)
  %14 = load i32, ptr %7, align 4
  %15 = add i32 %14, 2
  store i32 %15, ptr %7, align 4
  %16 = load ptr, ptr %5, align 8
  %17 = load ptr, ptr %4, align 8
  %18 = load i32, ptr %7, align 4
  %19 = load i32, ptr @hf_usb_com_get_ntb_params_ntb_formats_supported, align 4
  %20 = load i32, ptr @ett_usb_com_bitmap, align 4
  %21 = call ptr @proto_tree_add_bitmask(ptr noundef %16, ptr noundef %17, i32 noundef %18, i32 noundef %19, i32 noundef %20, ptr noundef @usb_com_get_ntb_params_ntb_formats_supported_fields, i32 noundef -2147483648)
  %22 = load i32, ptr %7, align 4
  %23 = add i32 %22, 2
  store i32 %23, ptr %7, align 4
  %24 = load ptr, ptr %5, align 8
  %25 = load i32, ptr @hf_usb_com_get_ntb_params_ntb_in_max_size, align 4
  %26 = load ptr, ptr %4, align 8
  %27 = load i32, ptr %7, align 4
  %28 = call ptr @proto_tree_add_item(ptr noundef %24, i32 noundef %25, ptr noundef %26, i32 noundef %27, i32 noundef 4, i32 noundef -2147483648)
  %29 = load i32, ptr %7, align 4
  %30 = add i32 %29, 4
  store i32 %30, ptr %7, align 4
  %31 = load ptr, ptr %5, align 8
  %32 = load i32, ptr @hf_usb_com_get_ntb_params_ndp_in_divisor, align 4
  %33 = load ptr, ptr %4, align 8
  %34 = load i32, ptr %7, align 4
  %35 = call ptr @proto_tree_add_item(ptr noundef %31, i32 noundef %32, ptr noundef %33, i32 noundef %34, i32 noundef 2, i32 noundef -2147483648)
  %36 = load i32, ptr %7, align 4
  %37 = add i32 %36, 2
  store i32 %37, ptr %7, align 4
  %38 = load ptr, ptr %5, align 8
  %39 = load i32, ptr @hf_usb_com_get_ntb_params_ndp_in_payload_remainder, align 4
  %40 = load ptr, ptr %4, align 8
  %41 = load i32, ptr %7, align 4
  %42 = call ptr @proto_tree_add_item(ptr noundef %38, i32 noundef %39, ptr noundef %40, i32 noundef %41, i32 noundef 2, i32 noundef -2147483648)
  %43 = load i32, ptr %7, align 4
  %44 = add i32 %43, 2
  store i32 %44, ptr %7, align 4
  %45 = load ptr, ptr %5, align 8
  %46 = load i32, ptr @hf_usb_com_get_ntb_params_ndp_in_alignment, align 4
  %47 = load ptr, ptr %4, align 8
  %48 = load i32, ptr %7, align 4
  %49 = call ptr @proto_tree_add_item(ptr noundef %45, i32 noundef %46, ptr noundef %47, i32 noundef %48, i32 noundef 2, i32 noundef -2147483648)
  %50 = load i32, ptr %7, align 4
  %51 = add i32 %50, 2
  store i32 %51, ptr %7, align 4
  %52 = load ptr, ptr %5, align 8
  %53 = load i32, ptr @hf_usb_com_get_ntb_params_reserved, align 4
  %54 = load ptr, ptr %4, align 8
  %55 = load i32, ptr %7, align 4
  %56 = call ptr @proto_tree_add_item(ptr noundef %52, i32 noundef %53, ptr noundef %54, i32 noundef %55, i32 noundef 2, i32 noundef -2147483648)
  %57 = load i32, ptr %7, align 4
  %58 = add i32 %57, 2
  store i32 %58, ptr %7, align 4
  %59 = load ptr, ptr %5, align 8
  %60 = load i32, ptr @hf_usb_com_get_ntb_params_ntb_out_max_size, align 4
  %61 = load ptr, ptr %4, align 8
  %62 = load i32, ptr %7, align 4
  %63 = call ptr @proto_tree_add_item(ptr noundef %59, i32 noundef %60, ptr noundef %61, i32 noundef %62, i32 noundef 4, i32 noundef -2147483648)
  %64 = load i32, ptr %7, align 4
  %65 = add i32 %64, 4
  store i32 %65, ptr %7, align 4
  %66 = load ptr, ptr %5, align 8
  %67 = load i32, ptr @hf_usb_com_get_ntb_params_ndp_out_divisor, align 4
  %68 = load ptr, ptr %4, align 8
  %69 = load i32, ptr %7, align 4
  %70 = call ptr @proto_tree_add_item(ptr noundef %66, i32 noundef %67, ptr noundef %68, i32 noundef %69, i32 noundef 2, i32 noundef -2147483648)
  %71 = load i32, ptr %7, align 4
  %72 = add i32 %71, 2
  store i32 %72, ptr %7, align 4
  %73 = load ptr, ptr %5, align 8
  %74 = load i32, ptr @hf_usb_com_get_ntb_params_ndp_out_payload_remainder, align 4
  %75 = load ptr, ptr %4, align 8
  %76 = load i32, ptr %7, align 4
  %77 = call ptr @proto_tree_add_item(ptr noundef %73, i32 noundef %74, ptr noundef %75, i32 noundef %76, i32 noundef 2, i32 noundef -2147483648)
  %78 = load i32, ptr %7, align 4
  %79 = add i32 %78, 2
  store i32 %79, ptr %7, align 4
  %80 = load ptr, ptr %5, align 8
  %81 = load i32, ptr @hf_usb_com_get_ntb_params_ndp_out_alignment, align 4
  %82 = load ptr, ptr %4, align 8
  %83 = load i32, ptr %7, align 4
  %84 = call ptr @proto_tree_add_item(ptr noundef %80, i32 noundef %81, ptr noundef %82, i32 noundef %83, i32 noundef 2, i32 noundef -2147483648)
  %85 = load i32, ptr %7, align 4
  %86 = add i32 %85, 2
  store i32 %86, ptr %7, align 4
  %87 = load ptr, ptr %5, align 8
  %88 = load i32, ptr @hf_usb_com_get_ntb_params_ntb_out_max_datagrams, align 4
  %89 = load ptr, ptr %4, align 8
  %90 = load i32, ptr %7, align 4
  %91 = call ptr @proto_tree_add_item(ptr noundef %87, i32 noundef %88, ptr noundef %89, i32 noundef %90, i32 noundef 2, i32 noundef -2147483648)
  %92 = load i32, ptr %7, align 4
  %93 = add i32 %92, 2
  store i32 %93, ptr %7, align 4
  %94 = load i32, ptr %7, align 4
  call void @llvm.lifetime.end.p0(i64 4, ptr %7) #13
  ret i32 %94
}