; Function Attrs: null_pointer_is_valid sspstrong uwtable
define internal fastcc range(i32 28, 36) i32 @dissect_usb_com_get_ntb_params(ptr noundef %0, ptr noundef %1, i32 noundef range(i32 0, 8) %2) unnamed_addr #1 {
  %4 = load i32, ptr @hf_usb_com_get_ntb_params_length, align 4
  %5 = tail call ptr @proto_tree_add_item(ptr noundef %1, i32 noundef %4, ptr noundef %0, i32 noundef %2, i32 noundef 2, i32 noundef -2147483648)
  %6 = add nuw nsw i32 %2, 2
  %7 = load i32, ptr @hf_usb_com_get_ntb_params_ntb_formats_supported, align 4
  %8 = load i32, ptr @ett_usb_com_bitmap, align 4
  %9 = tail call ptr @proto_tree_add_bitmask(ptr noundef %1, ptr noundef %0, i32 noundef %6, i32 noundef %7, i32 noundef %8, ptr noundef nonnull @usb_com_get_ntb_params_ntb_formats_supported_fields, i32 noundef -2147483648)
  %10 = add nuw nsw i32 %2, 4
  %11 = load i32, ptr @hf_usb_com_get_ntb_params_ntb_in_max_size, align 4
  %12 = tail call ptr @proto_tree_add_item(ptr noundef %1, i32 noundef %11, ptr noundef %0, i32 noundef %10, i32 noundef 4, i32 noundef -2147483648)
  %13 = or disjoint i32 %2, 8
  %14 = load i32, ptr @hf_usb_com_get_ntb_params_ndp_in_divisor, align 4
  %15 = tail call ptr @proto_tree_add_item(ptr noundef %1, i32 noundef %14, ptr noundef %0, i32 noundef %13, i32 noundef 2, i32 noundef -2147483648)
  %16 = add nuw nsw i32 %2, 10
  %17 = load i32, ptr @hf_usb_com_get_ntb_params_ndp_in_payload_remainder, align 4
  %18 = tail call ptr @proto_tree_add_item(ptr noundef %1, i32 noundef %17, ptr noundef %0, i32 noundef %16, i32 noundef 2, i32 noundef -2147483648)
  %19 = add nuw nsw i32 %2, 12
  %20 = load i32, ptr @hf_usb_com_get_ntb_params_ndp_in_alignment, align 4
  %21 = tail call ptr @proto_tree_add_item(ptr noundef %1, i32 noundef %20, ptr noundef %0, i32 noundef %19, i32 noundef 2, i32 noundef -2147483648)
  %22 = add nuw nsw i32 %2, 14
  %23 = load i32, ptr @hf_usb_com_get_ntb_params_reserved, align 4
  %24 = tail call ptr @proto_tree_add_item(ptr noundef %1, i32 noundef %23, ptr noundef %0, i32 noundef %22, i32 noundef 2, i32 noundef -2147483648)
  %25 = or disjoint i32 %2, 16
  %26 = load i32, ptr @hf_usb_com_get_ntb_params_ntb_out_max_size, align 4
  %27 = tail call ptr @proto_tree_add_item(ptr noundef %1, i32 noundef %26, ptr noundef %0, i32 noundef %25, i32 noundef 4, i32 noundef -2147483648)
  %28 = add nuw nsw i32 %2, 20
  %29 = load i32, ptr @hf_usb_com_get_ntb_params_ndp_out_divisor, align 4
  %30 = tail call ptr @proto_tree_add_item(ptr noundef %1, i32 noundef %29, ptr noundef %0, i32 noundef %28, i32 noundef 2, i32 noundef -2147483648)
  %31 = add nuw nsw i32 %2, 22
  %32 = load i32, ptr @hf_usb_com_get_ntb_params_ndp_out_payload_remainder, align 4
  %33 = tail call ptr @proto_tree_add_item(ptr noundef %1, i32 noundef %32, ptr noundef %0, i32 noundef %31, i32 noundef 2, i32 noundef -2147483648)
  %34 = or disjoint i32 %2, 24
  %35 = load i32, ptr @hf_usb_com_get_ntb_params_ndp_out_alignment, align 4
  %36 = tail call ptr @proto_tree_add_item(ptr noundef %1, i32 noundef %35, ptr noundef %0, i32 noundef %34, i32 noundef 2, i32 noundef -2147483648)
  %37 = add nuw nsw i32 %2, 26
  %38 = load i32, ptr @hf_usb_com_get_ntb_params_ntb_out_max_datagrams, align 4
  %39 = tail call ptr @proto_tree_add_item(ptr noundef %1, i32 noundef %38, ptr noundef %0, i32 noundef %37, i32 noundef 2, i32 noundef -2147483648)
  %40 = add nuw nsw i32 %2, 28
  ret i32 %40
}